target datalayout = "e-m:e-p270:32:32-p271:32:32-p272:64:64-i64:64-i128:128-f80:128-n8:16:32:64-S128"
target triple = "x86_64-pc-linux-gnu"

%struct.Node = type { i32 }
%struct.Var = type { %struct.Expr, i32, i16, i32, i32, i32, ptr, i32, i32, i32, i16, i32 }
%struct.Expr = type { i32 }
%struct.locate_var_of_level_context = type { i32, i32 }

; Function Attrs: nounwind uwtable
define internal zeroext i1 @locate_var_of_level_walker(ptr noundef %0, ptr noundef %1) #0 {
  %3 = alloca i1, align 1
  %4 = alloca ptr, align 8
  %5 = alloca ptr, align 8
  %6 = alloca ptr, align 8
  %7 = alloca i32, align 4
  %8 = alloca i8, align 1
  store ptr %0, ptr %4, align 8
  store ptr %1, ptr %5, align 8
  %9 = load ptr, ptr %4, align 8
  %10 = icmp eq ptr %9, null
  br i1 %10, label %11, label %12

11:                                               ; preds = %2
  store i1 false, ptr %3, align 1
  br label %69

12:                                               ; preds = %2
  %13 = load ptr, ptr %4, align 8
  %14 = getelementptr inbounds nuw %struct.Node, ptr %13, i32 0, i32 0
  %15 = load i32, ptr %14, align 4
  %16 = icmp eq i32 %15, 6
  br i1 %16, label %17, label %39

17:                                               ; preds = %12
  call void @llvm.lifetime.start.p0(i64 8, ptr %6) #6
  %18 = load ptr, ptr %4, align 8
  store ptr %18, ptr %6, align 8
  %19 = load ptr, ptr %6, align 8
  %20 = getelementptr inbounds nuw %struct.Var, ptr %19, i32 0, i32 7
  %21 = load i32, ptr %20, align 8
  %22 = load ptr, ptr %5, align 8
  %23 = getelementptr inbounds nuw %struct.locate_var_of_level_context, ptr %22, i32 0, i32 1
  %24 = load i32, ptr %23, align 4
  %25 = icmp eq i32 %21, %24
  br i1 %25, label %26, label %37

26:                                               ; preds = %17
  %27 = load ptr, ptr %6, align 8
  %28 = getelementptr inbounds nuw %struct.Var, ptr %27, i32 0, i32 11
  %29 = load i32, ptr %28, align 8
  %30 = icmp sge i32 %29, 0
  br i1 %30, label %31, label %37

31:                                               ; preds = %26
  %32 = load ptr, ptr %6, align 8
  %33 = getelementptr inbounds nuw %struct.Var, ptr %32, i32 0, i32 11
  %34 = load i32, ptr %33, align 8
  %35 = load ptr, ptr %5, align 8
  %36 = getelementptr inbounds nuw %struct.locate_var_of_level_context, ptr %35, i32 0, i32 0
  store i32 %34, ptr %36, align 4
  store i1 true, ptr %3, align 1
  store i32 1, ptr %7, align 4
  br label %38

37:                                               ; preds = %26, %17
  store i1 false, ptr %3, align 1
  store i32 1, ptr %7, align 4
  br label %38

38:                                               ; preds = %37, %31
  call void @llvm.lifetime.end.p0(i64 8, ptr %6) #6
  br label %69

39:                                               ; preds = %12
  %40 = load ptr, ptr %4, align 8
  %41 = getelementptr inbounds nuw %struct.Node, ptr %40, i32 0, i32 0
  %42 = load i32, ptr %41, align 4
  %43 = icmp eq i32 %42, 58
  br i1 %43, label %44, label %45

44:                                               ; preds = %39
  store i1 false, ptr %3, align 1
  br label %69

45:                                               ; preds = %39
  %46 = load ptr, ptr %4, align 8
  %47 = getelementptr inbounds nuw %struct.Node, ptr %46, i32 0, i32 0
  %48 = load i32, ptr %47, align 4
  %49 = icmp eq i32 %48, 67
  br i1 %49, label %50, label %65

50:                                               ; preds = %45
  call void @llvm.lifetime.start.p0(i64 1, ptr %8) #6
  %51 = load ptr, ptr %5, align 8
  %52 = getelementptr inbounds nuw %struct.locate_var_of_level_context, ptr %51, i32 0, i32 1
  %53 = load i32, ptr %52, align 4
  %54 = add i32 %53, 1
  store i32 %54, ptr %52, align 4
  %55 = load ptr, ptr %4, align 8
  %56 = load ptr, ptr %5, align 8
  %57 = call zeroext i1 @query_tree_walker_impl(ptr noundef %55, ptr noundef @locate_var_of_level_walker, ptr noundef %56, i32 noundef 0)
  %58 = zext i1 %57 to i8
  store i8 %58, ptr %8, align 1
  %59 = load ptr, ptr %5, align 8
  %60 = getelementptr inbounds nuw %struct.locate_var_of_level_context, ptr %59, i32 0, i32 1
  %61 = load i32, ptr %60, align 4
  %62 = add i32 %61, -1
  store i32 %62, ptr %60, align 4
  %63 = load i8, ptr %8, align 1, !range !4, !noundef !5
  %64 = trunc i8 %63 to i1
  store i1 %64, ptr %3, align 1
  store i32 1, ptr %7, align 4
  call void @llvm.lifetime.end.p0(i64 1, ptr %8) #6
  br label %69

65:                                               ; preds = %45
  %66 = load ptr, ptr %4, align 8
  %67 = load ptr, ptr %5, align 8
  %68 = call zeroext i1 @expression_tree_walker_impl(ptr noundef %66, ptr noundef @locate_var_of_level_walker, ptr noundef %67)
  store i1 %68, ptr %3, align 1
  br label %69

69:                                               ; preds = %65, %50, %44, %38, %11
  %70 = load i1, ptr %3, align 1
  ret i1 %70
}