; Function Attrs: nounwind uwtable
define internal zeroext i1 @locate_var_of_level_walker(ptr noundef %0, ptr noundef %1) #0 {
  %3 = icmp eq ptr %0, null
  br i1 %3, label %26, label %4

4:                                                ; preds = %2
  %5 = load i32, ptr %0, align 4
  switch i32 %5, label %24 [
    i32 6, label %6
    i32 58, label %26
    i32 67, label %17
  ]

6:                                                ; preds = %4
  %7 = getelementptr inbounds nuw i8, ptr %0, i64 32
  %8 = load i32, ptr %7, align 8
  %9 = getelementptr inbounds nuw i8, ptr %1, i64 4
  %10 = load i32, ptr %9, align 4
  %11 = icmp eq i32 %8, %10
  br i1 %11, label %12, label %26

12:                                               ; preds = %6
  %13 = getelementptr inbounds nuw i8, ptr %0, i64 48
  %14 = load i32, ptr %13, align 8
  %15 = icmp sgt i32 %14, -1
  br i1 %15, label %16, label %26

16:                                               ; preds = %12
  store i32 %14, ptr %1, align 4
  br label %26

17:                                               ; preds = %4
  %18 = getelementptr inbounds nuw i8, ptr %1, i64 4
  %19 = load i32, ptr %18, align 4
  %20 = add i32 %19, 1
  store i32 %20, ptr %18, align 4
  %21 = tail call zeroext i1 @query_tree_walker_impl(ptr noundef nonnull %0, ptr noundef nonnull @locate_var_of_level_walker, ptr noundef %1, i32 noundef 0) #6
  %22 = load i32, ptr %18, align 4
  %23 = add i32 %22, -1
  store i32 %23, ptr %18, align 4
  br label %26

24:                                               ; preds = %4
  %25 = tail call zeroext i1 @expression_tree_walker_impl(ptr noundef nonnull %0, ptr noundef nonnull @locate_var_of_level_walker, ptr noundef %1) #6
  br label %26

26:                                               ; preds = %4, %16, %12, %6, %2, %24, %17
  %.0 = phi i1 [ %21, %17 ], [ %25, %24 ], [ false, %2 ], [ true, %16 ], [ false, %12 ], [ false, %6 ], [ false, %4 ]
  ret i1 %.0
}